target datalayout = "e-m:e-p270:32:32-p271:32:32-p272:64:64-i64:64-i128:128-f80:128-n8:16:32:64-S128"
target triple = "x86_64-pc-linux-gnu"

%"struct.Luau::TypeLevel" = type { i32, i32 }
%"struct.Luau::NotNull" = type { ptr }
%"struct.Luau::BuiltinTypes" = type { %"class.std::unique_ptr", i8, ptr, ptr, ptr, ptr, ptr, ptr, ptr, ptr, ptr, ptr, ptr, ptr, ptr, ptr, ptr, ptr, ptr, ptr, ptr, ptr, ptr, ptr, ptr, ptr, ptr, ptr, ptr }
%"class.std::unique_ptr" = type { %"struct.std::__uniq_ptr_data" }
%"struct.std::__uniq_ptr_data" = type { %"class.std::__uniq_ptr_impl" }
%"class.std::__uniq_ptr_impl" = type { %"class.std::tuple" }
%"class.std::tuple" = type { %"struct.std::_Tuple_impl" }
%"struct.std::_Tuple_impl" = type { %"struct.std::_Head_base.52" }
%"struct.std::_Head_base.52" = type { ptr }
%"struct.Luau::FreeType" = type { i32, %"struct.Luau::TypeLevel", ptr, i8, ptr, ptr }
%"struct.Luau::NotNull.148" = type { ptr }

@_ZN4Luau8FreeTypeC1EPNS_5ScopeEPKNS_4TypeES5_ = dso_local unnamed_addr alias void (ptr, ptr, ptr, ptr), ptr @_ZN4Luau8FreeTypeC2EPNS_5ScopeEPKNS_4TypeES5_

; Function Attrs: mustprogress nounwind uwtable
define linkonce_odr dso_local noundef ptr @_ZNK4Luau7NotNullINS_12BuiltinTypesEEptEv(ptr noundef nonnull align 8 dereferenceable(8) %0) #2 comdat align 2 {
  %2 = alloca ptr, align 8
  store ptr %0, ptr %2, align 8, !tbaa !135
  %3 = load ptr, ptr %2, align 8
  %4 = getelementptr inbounds nuw %"struct.Luau::NotNull", ptr %3, i32 0, i32 0
  %5 = load ptr, ptr %4, align 8, !tbaa !137
  ret ptr %5
}

; Function Attrs: mustprogress nounwind uwtable
define linkonce_odr dso_local noundef ptr @_ZNK4Luau7NotNullINS_9TypeArenaEEptEv(ptr noundef nonnull align 8 dereferenceable(8) %0) #2 comdat align 2 {
  %2 = alloca ptr, align 8
  store ptr %0, ptr %2, align 8, !tbaa !451
  %3 = load ptr, ptr %2, align 8
  %4 = getelementptr inbounds nuw %"struct.Luau::NotNull.148", ptr %3, i32 0, i32 0
  %5 = load ptr, ptr %4, align 8, !tbaa !453
  ret ptr %5
}

; Function Attrs: mustprogress uwtable
define dso_local noundef ptr @_ZN4Luau9freshTypeENS_7NotNullINS_9TypeArenaEEENS0_INS_12BuiltinTypesEEEPNS_5ScopeE(ptr %0, ptr %1, ptr noundef %2) #3 {
  %4 = alloca %"struct.Luau::NotNull.148", align 8
  %5 = alloca %"struct.Luau::NotNull", align 8
  %6 = alloca ptr, align 8
  %7 = alloca %"struct.Luau::FreeType", align 8
  %8 = getelementptr inbounds nuw %"struct.Luau::NotNull.148", ptr %4, i32 0, i32 0
  store ptr %0, ptr %8, align 8
  %9 = getelementptr inbounds nuw %"struct.Luau::NotNull", ptr %5, i32 0, i32 0
  store ptr %1, ptr %9, align 8
  store ptr %2, ptr %6, align 8, !tbaa !192
  %10 = call noundef ptr @_ZNK4Luau7NotNullINS_9TypeArenaEEptEv(ptr noundef nonnull align 8 dereferenceable(8) %4) #20
  %11 = load ptr, ptr %6, align 8, !tbaa !192
  %12 = call noundef ptr @_ZNK4Luau7NotNullINS_12BuiltinTypesEEptEv(ptr noundef nonnull align 8 dereferenceable(8) %5) #20
  %13 = getelementptr inbounds nuw %"struct.Luau::BuiltinTypes", ptr %12, i32 0, i32 16
  %14 = load ptr, ptr %13, align 8, !tbaa !362
  %15 = call noundef ptr @_ZNK4Luau7NotNullINS_12BuiltinTypesEEptEv(ptr noundef nonnull align 8 dereferenceable(8) %5) #20
  %16 = getelementptr inbounds nuw %"struct.Luau::BuiltinTypes", ptr %15, i32 0, i32 15
  %17 = load ptr, ptr %16, align 8, !tbaa !361
  call void @_ZN4Luau8FreeTypeC1EPNS_5ScopeEPKNS_4TypeES5_(ptr noundef nonnull align 8 dereferenceable(48) %7, ptr noundef %11, ptr noundef %14, ptr noundef %17)
  %18 = call noundef ptr @_ZN4Luau9TypeArena7addTypeINS_8FreeTypeEEEPKNS_4TypeET_(ptr noundef nonnull align 8 dereferenceable(88) %10, ptr noundef byval(%"struct.Luau::FreeType") align 8 %7)
  ret ptr %18
}