; Function Attrs: mustprogress uwtable
define dso_local noundef ptr @_ZN4Luau9freshTypeENS_7NotNullINS_9TypeArenaEEENS0_INS_12BuiltinTypesEEEPNS_5ScopeE(ptr %0, ptr readonly captures(none) %1, ptr noundef %2) local_unnamed_addr #2 {
  %4 = alloca %"struct.Luau::FreeType", align 8
  %5 = getelementptr inbounds nuw i8, ptr %1, i64 128
  %6 = load ptr, ptr %5, align 8, !tbaa !351
  %7 = getelementptr inbounds nuw i8, ptr %1, i64 120
  %8 = load ptr, ptr %7, align 8, !tbaa !350
  %9 = tail call noundef i32 @_ZN4Luau9Unifiable10freshIndexEv()
  store i32 %9, ptr %4, align 8, !tbaa !160
  %10 = getelementptr inbounds nuw i8, ptr %4, i64 4
  store i32 0, ptr %10, align 4, !tbaa !168
  %11 = getelementptr inbounds nuw i8, ptr %4, i64 8
  store i32 0, ptr %11, align 8, !tbaa !169
  %12 = getelementptr inbounds nuw i8, ptr %4, i64 16
  store ptr %2, ptr %12, align 8, !tbaa !164
  %13 = getelementptr inbounds nuw i8, ptr %4, i64 24
  store i8 0, ptr %13, align 8, !tbaa !165
  %14 = getelementptr inbounds nuw i8, ptr %4, i64 32
  store ptr %6, ptr %14, align 8, !tbaa !166
  %15 = getelementptr inbounds nuw i8, ptr %4, i64 40
  store ptr %8, ptr %15, align 8, !tbaa !167
  %16 = tail call noundef ptr @_ZN4Luau9TypeArena7addTypeINS_8FreeTypeEEEPKNS_4TypeET_(ptr noundef nonnull align 8 dereferenceable(88) %0, ptr noundef nonnull byval(%"struct.Luau::FreeType") align 8 %4)
  ret ptr %16
}